target datalayout = "e-m:e-p270:32:32-p271:32:32-p272:64:64-i64:64-i128:128-f80:128-n8:16:32:64-S128"
target triple = "x86_64-pc-linux-gnu"

%union.Value = type { ptr }
%struct.lua_State = type { ptr, i8, i8, i8, ptr, ptr, ptr, ptr, ptr, ptr, ptr, ptr, ptr, i32, i32, i16, i16, i8, i8, i32, i32, ptr, %struct.lua_TValue, %struct.lua_TValue, ptr, ptr, ptr, i64 }
%struct.lua_TValue = type { %union.Value, i32 }
%struct.global_State = type { %struct.stringtable, ptr, ptr, i8, i8, i32, ptr, ptr, ptr, ptr, ptr, ptr, %struct.Mbuffer, i64, i64, i64, i64, i32, i32, ptr, %struct.lua_TValue, ptr, %struct.UpVal, [9 x ptr], [17 x ptr] }
%struct.stringtable = type { ptr, i32, i32 }
%struct.Mbuffer = type { ptr, i64, i64 }
%struct.UpVal = type { ptr, i8, i8, ptr, %union.anon }
%union.anon = type { %struct.lua_TValue }
%struct.GCheader = type { ptr, i8, i8 }
%struct.anon.0 = type { ptr, i8, i8, i8, i32, i64 }
%union.TString = type { %struct.anon.0 }
%struct.lua_longjmp = type { ptr, [1 x %struct.__jmp_buf_tag], i32 }
%struct.__jmp_buf_tag = type { [8 x i64], i32, %struct.__sigset_t }
%struct.__sigset_t = type { [16 x i64] }

@.str.5 = private unnamed_addr constant [39 x i8] c"memory allocation error: block too big\00", align 1

; Function Attrs: nounwind uwtable
define internal void @luaD_throw(ptr noundef %0, i32 noundef %1) #0 {
  %3 = alloca ptr, align 8
  %4 = alloca i32, align 4
  store ptr %0, ptr %3, align 8, !tbaa !11
  store i32 %1, ptr %4, align 4, !tbaa !4
  %5 = load ptr, ptr %3, align 8, !tbaa !11
  %6 = getelementptr inbounds nuw %struct.lua_State, ptr %5, i32 0, i32 26
  %7 = load ptr, ptr %6, align 8, !tbaa !101
  %8 = icmp ne ptr %7, null
  br i1 %8, label %9, label %20

9:                                                ; preds = %2
  %10 = load i32, ptr %4, align 4, !tbaa !4
  %11 = load ptr, ptr %3, align 8, !tbaa !11
  %12 = getelementptr inbounds nuw %struct.lua_State, ptr %11, i32 0, i32 26
  %13 = load ptr, ptr %12, align 8, !tbaa !101
  %14 = getelementptr inbounds nuw %struct.lua_longjmp, ptr %13, i32 0, i32 2
  store volatile i32 %10, ptr %14, align 8, !tbaa !112
  %15 = load ptr, ptr %3, align 8, !tbaa !11
  %16 = getelementptr inbounds nuw %struct.lua_State, ptr %15, i32 0, i32 26
  %17 = load ptr, ptr %16, align 8, !tbaa !101
  %18 = getelementptr inbounds nuw %struct.lua_longjmp, ptr %17, i32 0, i32 1
  %19 = getelementptr inbounds [1 x %struct.__jmp_buf_tag], ptr %18, i64 0, i64 0
  call void @longjmp(ptr noundef %19, i32 noundef 1) #18
  unreachable

20:                                               ; preds = %2
  %21 = load i32, ptr %4, align 4, !tbaa !4
  %22 = trunc i32 %21 to i8
  %23 = load ptr, ptr %3, align 8, !tbaa !11
  %24 = getelementptr inbounds nuw %struct.lua_State, ptr %23, i32 0, i32 3
  store i8 %22, ptr %24, align 2, !tbaa !109
  %25 = load ptr, ptr %3, align 8, !tbaa !11
  %26 = getelementptr inbounds nuw %struct.lua_State, ptr %25, i32 0, i32 6
  %27 = load ptr, ptr %26, align 8, !tbaa !25
  %28 = getelementptr inbounds nuw %struct.global_State, ptr %27, i32 0, i32 19
  %29 = load ptr, ptr %28, align 8, !tbaa !85
  %30 = icmp ne ptr %29, null
  br i1 %30, label %31, label %41

31:                                               ; preds = %20
  %32 = load ptr, ptr %3, align 8, !tbaa !11
  %33 = load i32, ptr %4, align 4, !tbaa !4
  call void @resetstack(ptr noundef %32, i32 noundef %33)
  %34 = load ptr, ptr %3, align 8, !tbaa !11
  %35 = getelementptr inbounds nuw %struct.lua_State, ptr %34, i32 0, i32 6
  %36 = load ptr, ptr %35, align 8, !tbaa !25
  %37 = getelementptr inbounds nuw %struct.global_State, ptr %36, i32 0, i32 19
  %38 = load ptr, ptr %37, align 8, !tbaa !85
  %39 = load ptr, ptr %3, align 8, !tbaa !11
  %40 = call i32 %38(ptr noundef %39)
  br label %41

41:                                               ; preds = %31, %20
  call void @exit(i32 noundef 1) #18
  unreachable
}

; Function Attrs: nounwind uwtable
define internal ptr @luaM_realloc_(ptr noundef %0, ptr noundef %1, i64 noundef %2, i64 noundef %3) #0 {
  %5 = alloca ptr, align 8
  %6 = alloca ptr, align 8
  %7 = alloca i64, align 8
  %8 = alloca i64, align 8
  %9 = alloca ptr, align 8
  store ptr %0, ptr %5, align 8, !tbaa !11
  store ptr %1, ptr %6, align 8, !tbaa !71
  store i64 %2, ptr %7, align 8, !tbaa !53
  store i64 %3, ptr %8, align 8, !tbaa !53
  call void @llvm.lifetime.start.p0(i64 8, ptr %9) #14
  %10 = load ptr, ptr %5, align 8, !tbaa !11
  %11 = getelementptr inbounds nuw %struct.lua_State, ptr %10, i32 0, i32 6
  %12 = load ptr, ptr %11, align 8, !tbaa !25
  store ptr %12, ptr %9, align 8, !tbaa !72
  %13 = load ptr, ptr %9, align 8, !tbaa !72
  %14 = getelementptr inbounds nuw %struct.global_State, ptr %13, i32 0, i32 1
  %15 = load ptr, ptr %14, align 8, !tbaa !77
  %16 = load ptr, ptr %9, align 8, !tbaa !72
  %17 = getelementptr inbounds nuw %struct.global_State, ptr %16, i32 0, i32 2
  %18 = load ptr, ptr %17, align 8, !tbaa !78
  %19 = load ptr, ptr %6, align 8, !tbaa !71
  %20 = load i64, ptr %7, align 8, !tbaa !53
  %21 = load i64, ptr %8, align 8, !tbaa !53
  %22 = call ptr %15(ptr noundef %18, ptr noundef %19, i64 noundef %20, i64 noundef %21)
  store ptr %22, ptr %6, align 8, !tbaa !71
  %23 = load ptr, ptr %6, align 8, !tbaa !71
  %24 = icmp eq ptr %23, null
  br i1 %24, label %25, label %30

25:                                               ; preds = %4
  %26 = load i64, ptr %8, align 8, !tbaa !53
  %27 = icmp ugt i64 %26, 0
  br i1 %27, label %28, label %30

28:                                               ; preds = %25
  %29 = load ptr, ptr %5, align 8, !tbaa !11
  call void @luaD_throw(ptr noundef %29, i32 noundef 4)
  br label %30

30:                                               ; preds = %28, %25, %4
  %31 = load ptr, ptr %9, align 8, !tbaa !72
  %32 = getelementptr inbounds nuw %struct.global_State, ptr %31, i32 0, i32 14
  %33 = load i64, ptr %32, align 8, !tbaa !36
  %34 = load i64, ptr %7, align 8, !tbaa !53
  %35 = sub i64 %33, %34
  %36 = load i64, ptr %8, align 8, !tbaa !53
  %37 = add i64 %35, %36
  %38 = load ptr, ptr %9, align 8, !tbaa !72
  %39 = getelementptr inbounds nuw %struct.global_State, ptr %38, i32 0, i32 14
  store i64 %37, ptr %39, align 8, !tbaa !36
  %40 = load ptr, ptr %6, align 8, !tbaa !71
  call void @llvm.lifetime.end.p0(i64 8, ptr %9) #14
  ret ptr %40
}

; Function Attrs: nounwind uwtable
define internal ptr @luaM_toobig(ptr noundef %0) #0 {
  %2 = alloca ptr, align 8
  store ptr %0, ptr %2, align 8, !tbaa !11
  %3 = load ptr, ptr %2, align 8, !tbaa !11
  call void (ptr, ptr, ...) @luaG_runerror(ptr noundef %3, ptr noundef @.str.5)
  ret ptr null
}

; Function Attrs: nounwind uwtable
define internal ptr @newlstr(ptr noundef %0, ptr noundef %1, i64 noundef %2, i32 noundef %3) #0 {
  %5 = alloca ptr, align 8
  %6 = alloca ptr, align 8
  %7 = alloca i64, align 8
  %8 = alloca i32, align 4
  %9 = alloca ptr, align 8
  %10 = alloca ptr, align 8
  store ptr %0, ptr %5, align 8, !tbaa !11
  store ptr %1, ptr %6, align 8, !tbaa !13
  store i64 %2, ptr %7, align 8, !tbaa !53
  store i32 %3, ptr %8, align 4, !tbaa !4
  call void @llvm.lifetime.start.p0(i64 8, ptr %9) #14
  call void @llvm.lifetime.start.p0(i64 8, ptr %10) #14
  %11 = load i64, ptr %7, align 8, !tbaa !53
  %12 = add i64 %11, 1
  %13 = icmp ugt i64 %12, -27
  br i1 %13, label %14, label %17

14:                                               ; preds = %4
  %15 = load ptr, ptr %5, align 8, !tbaa !11
  %16 = call ptr @luaM_toobig(ptr noundef %15)
  br label %17

17:                                               ; preds = %14, %4
  %18 = load ptr, ptr %5, align 8, !tbaa !11
  %19 = load i64, ptr %7, align 8, !tbaa !53
  %20 = add i64 %19, 1
  %21 = mul i64 %20, 1
  %22 = add i64 %21, 24
  %23 = call ptr @luaM_realloc_(ptr noundef %18, ptr noundef null, i64 noundef 0, i64 noundef %22)
  store ptr %23, ptr %9, align 8, !tbaa !135
  %24 = load i64, ptr %7, align 8, !tbaa !53
  %25 = load ptr, ptr %9, align 8, !tbaa !135
  %26 = getelementptr inbounds nuw %struct.anon.0, ptr %25, i32 0, i32 5
  store i64 %24, ptr %26, align 8, !tbaa !45
  %27 = load i32, ptr %8, align 4, !tbaa !4
  %28 = load ptr, ptr %9, align 8, !tbaa !135
  %29 = getelementptr inbounds nuw %struct.anon.0, ptr %28, i32 0, i32 4
  store i32 %27, ptr %29, align 4, !tbaa !45
  %30 = load ptr, ptr %5, align 8, !tbaa !11
  %31 = getelementptr inbounds nuw %struct.lua_State, ptr %30, i32 0, i32 6
  %32 = load ptr, ptr %31, align 8, !tbaa !25
  %33 = getelementptr inbounds nuw %struct.global_State, ptr %32, i32 0, i32 3
  %34 = load i8, ptr %33, align 8, !tbaa !75
  %35 = zext i8 %34 to i32
  %36 = and i32 %35, 3
  %37 = trunc i32 %36 to i8
  %38 = load ptr, ptr %9, align 8, !tbaa !135
  %39 = getelementptr inbounds nuw %struct.anon.0, ptr %38, i32 0, i32 2
  store i8 %37, ptr %39, align 1, !tbaa !45
  %40 = load ptr, ptr %9, align 8, !tbaa !135
  %41 = getelementptr inbounds nuw %struct.anon.0, ptr %40, i32 0, i32 1
  store i8 4, ptr %41, align 8, !tbaa !45
  %42 = load ptr, ptr %9, align 8, !tbaa !135
  %43 = getelementptr inbounds nuw %struct.anon.0, ptr %42, i32 0, i32 3
  store i8 0, ptr %43, align 2, !tbaa !45
  %44 = load ptr, ptr %9, align 8, !tbaa !135
  %45 = getelementptr inbounds %union.TString, ptr %44, i64 1
  %46 = load ptr, ptr %6, align 8, !tbaa !13
  %47 = load i64, ptr %7, align 8, !tbaa !53
  %48 = mul i64 %47, 1
  call void @llvm.memcpy.p0.p0.i64(ptr align 8 %45, ptr align 1 %46, i64 %48, i1 false)
  %49 = load ptr, ptr %9, align 8, !tbaa !135
  %50 = getelementptr inbounds %union.TString, ptr %49, i64 1
  %51 = load i64, ptr %7, align 8, !tbaa !53
  %52 = getelementptr inbounds nuw i8, ptr %50, i64 %51
  store i8 0, ptr %52, align 1, !tbaa !45
  %53 = load ptr, ptr %5, align 8, !tbaa !11
  %54 = getelementptr inbounds nuw %struct.lua_State, ptr %53, i32 0, i32 6
  %55 = load ptr, ptr %54, align 8, !tbaa !25
  %56 = getelementptr inbounds nuw %struct.global_State, ptr %55, i32 0, i32 0
  store ptr %56, ptr %10, align 8, !tbaa !127
  %57 = load i32, ptr %8, align 4, !tbaa !4
  %58 = load ptr, ptr %10, align 8, !tbaa !127
  %59 = getelementptr inbounds nuw %struct.stringtable, ptr %58, i32 0, i32 2
  %60 = load i32, ptr %59, align 4, !tbaa !131
  %61 = sub nsw i32 %60, 1
  %62 = and i32 %57, %61
  store i32 %62, ptr %8, align 4, !tbaa !4
  %63 = load ptr, ptr %10, align 8, !tbaa !127
  %64 = getelementptr inbounds nuw %struct.stringtable, ptr %63, i32 0, i32 0
  %65 = load ptr, ptr %64, align 8, !tbaa !132
  %66 = load i32, ptr %8, align 4, !tbaa !4
  %67 = zext i32 %66 to i64
  %68 = getelementptr inbounds nuw ptr, ptr %65, i64 %67
  %69 = load ptr, ptr %68, align 8, !tbaa !129
  %70 = load ptr, ptr %9, align 8, !tbaa !135
  %71 = getelementptr inbounds nuw %struct.anon.0, ptr %70, i32 0, i32 0
  store ptr %69, ptr %71, align 8, !tbaa !45
  %72 = load ptr, ptr %9, align 8, !tbaa !135
  %73 = load ptr, ptr %10, align 8, !tbaa !127
  %74 = getelementptr inbounds nuw %struct.stringtable, ptr %73, i32 0, i32 0
  %75 = load ptr, ptr %74, align 8, !tbaa !132
  %76 = load i32, ptr %8, align 4, !tbaa !4
  %77 = zext i32 %76 to i64
  %78 = getelementptr inbounds nuw ptr, ptr %75, i64 %77
  store ptr %72, ptr %78, align 8, !tbaa !129
  %79 = load ptr, ptr %10, align 8, !tbaa !127
  %80 = getelementptr inbounds nuw %struct.stringtable, ptr %79, i32 0, i32 1
  %81 = load i32, ptr %80, align 8, !tbaa !274
  %82 = add i32 %81, 1
  store i32 %82, ptr %80, align 8, !tbaa !274
  %83 = load ptr, ptr %10, align 8, !tbaa !127
  %84 = getelementptr inbounds nuw %struct.stringtable, ptr %83, i32 0, i32 1
  %85 = load i32, ptr %84, align 8, !tbaa !274
  %86 = load ptr, ptr %10, align 8, !tbaa !127
  %87 = getelementptr inbounds nuw %struct.stringtable, ptr %86, i32 0, i32 2
  %88 = load i32, ptr %87, align 4, !tbaa !131
  %89 = icmp ugt i32 %85, %88
  br i1 %89, label %90, label %101

90:                                               ; preds = %17
  %91 = load ptr, ptr %10, align 8, !tbaa !127
  %92 = getelementptr inbounds nuw %struct.stringtable, ptr %91, i32 0, i32 2
  %93 = load i32, ptr %92, align 4, !tbaa !131
  %94 = icmp sle i32 %93, 1073741822
  br i1 %94, label %95, label %101

95:                                               ; preds = %90
  %96 = load ptr, ptr %5, align 8, !tbaa !11
  %97 = load ptr, ptr %10, align 8, !tbaa !127
  %98 = getelementptr inbounds nuw %struct.stringtable, ptr %97, i32 0, i32 2
  %99 = load i32, ptr %98, align 4, !tbaa !131
  %100 = mul nsw i32 %99, 2
  call void @luaS_resize(ptr noundef %96, i32 noundef %100)
  br label %101

101:                                              ; preds = %95, %90, %17
  %102 = load ptr, ptr %9, align 8, !tbaa !135
  call void @llvm.lifetime.end.p0(i64 8, ptr %10) #14
  call void @llvm.lifetime.end.p0(i64 8, ptr %9) #14
  ret ptr %102
}

; Function Attrs: nounwind uwtable
define internal ptr @luaS_newlstr(ptr noundef %0, ptr noundef %1, i64 noundef %2) #0 {
  %4 = alloca ptr, align 8
  %5 = alloca ptr, align 8
  %6 = alloca ptr, align 8
  %7 = alloca i64, align 8
  %8 = alloca ptr, align 8
  %9 = alloca i32, align 4
  %10 = alloca i64, align 8
  %11 = alloca i64, align 8
  %12 = alloca ptr, align 8
  %13 = alloca i32, align 4
  store ptr %0, ptr %5, align 8, !tbaa !11
  store ptr %1, ptr %6, align 8, !tbaa !13
  store i64 %2, ptr %7, align 8, !tbaa !53
  call void @llvm.lifetime.start.p0(i64 8, ptr %8) #14
  call void @llvm.lifetime.start.p0(i64 4, ptr %9) #14
  %14 = load i64, ptr %7, align 8, !tbaa !53
  %15 = trunc i64 %14 to i32
  store i32 %15, ptr %9, align 4, !tbaa !4
  call void @llvm.lifetime.start.p0(i64 8, ptr %10) #14
  %16 = load i64, ptr %7, align 8, !tbaa !53
  %17 = lshr i64 %16, 5
  %18 = add i64 %17, 1
  store i64 %18, ptr %10, align 8, !tbaa !53
  call void @llvm.lifetime.start.p0(i64 8, ptr %11) #14
  %19 = load i64, ptr %7, align 8, !tbaa !53
  store i64 %19, ptr %11, align 8, !tbaa !53
  br label %20

20:                                               ; preds = %39, %3
  %21 = load i64, ptr %11, align 8, !tbaa !53
  %22 = load i64, ptr %10, align 8, !tbaa !53
  %23 = icmp uge i64 %21, %22
  br i1 %23, label %24, label %43

24:                                               ; preds = %20
  %25 = load i32, ptr %9, align 4, !tbaa !4
  %26 = load i32, ptr %9, align 4, !tbaa !4
  %27 = shl i32 %26, 5
  %28 = load i32, ptr %9, align 4, !tbaa !4
  %29 = lshr i32 %28, 2
  %30 = add i32 %27, %29
  %31 = load ptr, ptr %6, align 8, !tbaa !13
  %32 = load i64, ptr %11, align 8, !tbaa !53
  %33 = sub i64 %32, 1
  %34 = getelementptr inbounds nuw i8, ptr %31, i64 %33
  %35 = load i8, ptr %34, align 1, !tbaa !45
  %36 = zext i8 %35 to i32
  %37 = add i32 %30, %36
  %38 = xor i32 %25, %37
  store i32 %38, ptr %9, align 4, !tbaa !4
  br label %39

39:                                               ; preds = %24
  %40 = load i64, ptr %10, align 8, !tbaa !53
  %41 = load i64, ptr %11, align 8, !tbaa !53
  %42 = sub i64 %41, %40
  store i64 %42, ptr %11, align 8, !tbaa !53
  br label %20, !llvm.loop !139

43:                                               ; preds = %20
  %44 = load ptr, ptr %5, align 8, !tbaa !11
  %45 = getelementptr inbounds nuw %struct.lua_State, ptr %44, i32 0, i32 6
  %46 = load ptr, ptr %45, align 8, !tbaa !25
  %47 = getelementptr inbounds nuw %struct.global_State, ptr %46, i32 0, i32 0
  %48 = getelementptr inbounds nuw %struct.stringtable, ptr %47, i32 0, i32 0
  %49 = load ptr, ptr %48, align 8, !tbaa !81
  %50 = load i32, ptr %9, align 4, !tbaa !4
  %51 = load ptr, ptr %5, align 8, !tbaa !11
  %52 = getelementptr inbounds nuw %struct.lua_State, ptr %51, i32 0, i32 6
  %53 = load ptr, ptr %52, align 8, !tbaa !25
  %54 = getelementptr inbounds nuw %struct.global_State, ptr %53, i32 0, i32 0
  %55 = getelementptr inbounds nuw %struct.stringtable, ptr %54, i32 0, i32 2
  %56 = load i32, ptr %55, align 4, !tbaa !79
  %57 = sub nsw i32 %56, 1
  %58 = and i32 %50, %57
  %59 = sext i32 %58 to i64
  %60 = getelementptr inbounds ptr, ptr %49, i64 %59
  %61 = load ptr, ptr %60, align 8, !tbaa !129
  store ptr %61, ptr %8, align 8, !tbaa !129
  br label %62

62:                                               ; preds = %107, %43
  %63 = load ptr, ptr %8, align 8, !tbaa !129
  %64 = icmp ne ptr %63, null
  br i1 %64, label %65, label %111

65:                                               ; preds = %62
  call void @llvm.lifetime.start.p0(i64 8, ptr %12) #14
  %66 = load ptr, ptr %8, align 8, !tbaa !129
  store ptr %66, ptr %12, align 8, !tbaa !135
  %67 = load ptr, ptr %12, align 8, !tbaa !135
  %68 = getelementptr inbounds nuw %struct.anon.0, ptr %67, i32 0, i32 5
  %69 = load i64, ptr %68, align 8, !tbaa !45
  %70 = load i64, ptr %7, align 8, !tbaa !53
  %71 = icmp eq i64 %69, %70
  br i1 %71, label %72, label %103

72:                                               ; preds = %65
  %73 = load ptr, ptr %6, align 8, !tbaa !13
  %74 = load ptr, ptr %12, align 8, !tbaa !135
  %75 = getelementptr inbounds %union.TString, ptr %74, i64 1
  %76 = load i64, ptr %7, align 8, !tbaa !53
  %77 = call i32 @memcmp(ptr noundef %73, ptr noundef %75, i64 noundef %76) #15
  %78 = icmp eq i32 %77, 0
  br i1 %78, label %79, label %103

79:                                               ; preds = %72
  %80 = load ptr, ptr %8, align 8, !tbaa !129
  %81 = getelementptr inbounds nuw %struct.GCheader, ptr %80, i32 0, i32 2
  %82 = load i8, ptr %81, align 1, !tbaa !45
  %83 = zext i8 %82 to i32
  %84 = load ptr, ptr %5, align 8, !tbaa !11
  %85 = getelementptr inbounds nuw %struct.lua_State, ptr %84, i32 0, i32 6
  %86 = load ptr, ptr %85, align 8, !tbaa !25
  %87 = getelementptr inbounds nuw %struct.global_State, ptr %86, i32 0, i32 3
  %88 = load i8, ptr %87, align 8, !tbaa !75
  %89 = zext i8 %88 to i32
  %90 = xor i32 %89, 3
  %91 = and i32 %83, %90
  %92 = and i32 %91, 3
  %93 = icmp ne i32 %92, 0
  br i1 %93, label %94, label %101

94:                                               ; preds = %79
  %95 = load ptr, ptr %8, align 8, !tbaa !129
  %96 = getelementptr inbounds nuw %struct.GCheader, ptr %95, i32 0, i32 2
  %97 = load i8, ptr %96, align 1, !tbaa !45
  %98 = zext i8 %97 to i32
  %99 = xor i32 %98, 3
  %100 = trunc i32 %99 to i8
  store i8 %100, ptr %96, align 1, !tbaa !45
  br label %101

101:                                              ; preds = %94, %79
  %102 = load ptr, ptr %12, align 8, !tbaa !135
  store ptr %102, ptr %4, align 8
  store i32 1, ptr %13, align 4
  br label %104

103:                                              ; preds = %72, %65
  store i32 0, ptr %13, align 4
  br label %104

104:                                              ; preds = %103, %101
  call void @llvm.lifetime.end.p0(i64 8, ptr %12) #14
  %105 = load i32, ptr %13, align 4
  switch i32 %105, label %117 [
    i32 0, label %106
  ]

106:                                              ; preds = %104
  br label %107

107:                                              ; preds = %106
  %108 = load ptr, ptr %8, align 8, !tbaa !129
  %109 = getelementptr inbounds nuw %struct.GCheader, ptr %108, i32 0, i32 0
  %110 = load ptr, ptr %109, align 8, !tbaa !45
  store ptr %110, ptr %8, align 8, !tbaa !129
  br label %62, !llvm.loop !140

111:                                              ; preds = %62
  %112 = load ptr, ptr %5, align 8, !tbaa !11
  %113 = load ptr, ptr %6, align 8, !tbaa !13
  %114 = load i64, ptr %7, align 8, !tbaa !53
  %115 = load i32, ptr %9, align 4, !tbaa !4
  %116 = call ptr @newlstr(ptr noundef %112, ptr noundef %113, i64 noundef %114, i32 noundef %115)
  store ptr %116, ptr %4, align 8
  store i32 1, ptr %13, align 4
  br label %117

117:                                              ; preds = %111, %104
  call void @llvm.lifetime.end.p0(i64 8, ptr %11) #14
  call void @llvm.lifetime.end.p0(i64 8, ptr %10) #14
  call void @llvm.lifetime.end.p0(i64 4, ptr %9) #14
  call void @llvm.lifetime.end.p0(i64 8, ptr %8) #14
  %118 = load ptr, ptr %4, align 8
  ret ptr %118
}