; Function Attrs: nounwind uwtable
define internal fastcc ptr @luaS_newlstr(ptr noundef %0, ptr noundef readonly captures(none) %1, i64 noundef %2) unnamed_addr #0 {
  %4 = lshr i64 %2, 5
  %.neg = xor i64 %4, -1
  %invariant.gep = getelementptr i8, ptr %1, i64 -1
  %.not.not42.not = icmp eq i64 %2, 0
  br i1 %.not.not42.not, label %._crit_edge, label %.lr.ph.preheader

.lr.ph.preheader:                                 ; preds = %3
  %5 = trunc i64 %2 to i32
  br label %.lr.ph

.lr.ph:                                           ; preds = %.lr.ph.preheader, %.lr.ph
  %.03344 = phi i64 [ %13, %.lr.ph ], [ %2, %.lr.ph.preheader ]
  %.03543 = phi i32 [ %12, %.lr.ph ], [ %5, %.lr.ph.preheader ]
  %6 = shl i32 %.03543, 5
  %7 = lshr i32 %.03543, 2
  %8 = add i32 %6, %7
  %gep = getelementptr i8, ptr %invariant.gep, i64 %.03344
  %9 = load i8, ptr %gep, align 1, !tbaa !46
  %10 = zext i8 %9 to i32
  %11 = add i32 %8, %10
  %12 = xor i32 %11, %.03543
  %13 = add i64 %.03344, %.neg
  %.not.not = icmp ugt i64 %13, %4
  br i1 %.not.not, label %.lr.ph, label %._crit_edge, !llvm.loop !135

._crit_edge:                                      ; preds = %.lr.ph, %3
  %.035.lcssa = phi i32 [ 0, %3 ], [ %12, %.lr.ph ]
  %14 = getelementptr inbounds nuw i8, ptr %0, i64 32
  %15 = load ptr, ptr %14, align 8, !tbaa !29
  %16 = load ptr, ptr %15, align 8, !tbaa !125
  %17 = getelementptr inbounds nuw i8, ptr %15, i64 12
  %18 = load i32, ptr %17, align 4, !tbaa !124
  %19 = add nsw i32 %18, -1
  %20 = and i32 %19, %.035.lcssa
  %21 = sext i32 %20 to i64
  %22 = getelementptr inbounds ptr, ptr %16, i64 %21
  %.03445 = load ptr, ptr %22, align 8, !tbaa !46
  %.not46 = icmp eq ptr %.03445, null
  br i1 %.not46, label %._crit_edge50, label %.lr.ph49

.lr.ph49:                                         ; preds = %._crit_edge, %39
  %.03447 = phi ptr [ %.034, %39 ], [ %.03445, %._crit_edge ]
  %23 = getelementptr inbounds nuw i8, ptr %.03447, i64 16
  %24 = load i64, ptr %23, align 8, !tbaa !46
  %25 = icmp eq i64 %24, %2
  br i1 %25, label %26, label %39

26:                                               ; preds = %.lr.ph49
  %27 = getelementptr inbounds nuw i8, ptr %.03447, i64 24
  %bcmp = tail call i32 @bcmp(ptr %1, ptr nonnull %27, i64 %2)
  %28 = icmp eq i32 %bcmp, 0
  br i1 %28, label %29, label %39

29:                                               ; preds = %26
  %30 = getelementptr inbounds nuw i8, ptr %.03447, i64 9
  %31 = load i8, ptr %30, align 1, !tbaa !46
  %32 = getelementptr inbounds nuw i8, ptr %15, i64 32
  %33 = load i8, ptr %32, align 8, !tbaa !20
  %34 = xor i8 %33, -1
  %35 = and i8 %31, 3
  %36 = and i8 %35, %34
  %.not38 = icmp eq i8 %36, 0
  br i1 %.not38, label %newlstr.exit, label %37

37:                                               ; preds = %29
  %38 = xor i8 %31, 3
  store i8 %38, ptr %30, align 1, !tbaa !46
  br label %newlstr.exit

39:                                               ; preds = %.lr.ph49, %26
  %.034 = load ptr, ptr %.03447, align 8, !tbaa !46
  %.not = icmp eq ptr %.034, null
  br i1 %.not, label %._crit_edge50, label %.lr.ph49, !llvm.loop !136

._crit_edge50:                                    ; preds = %39, %._crit_edge
  %40 = add i64 %2, 27
  %41 = icmp ult i64 %40, 26
  br i1 %41, label %42, label %43

42:                                               ; preds = %._crit_edge50
  tail call void (ptr, ptr, ...) @luaG_runerror(ptr noundef %0, ptr noundef nonnull @.str.5)
  unreachable

43:                                               ; preds = %._crit_edge50
  %44 = add i64 %2, 25
  %45 = getelementptr inbounds nuw i8, ptr %15, i64 16
  %46 = load ptr, ptr %45, align 8, !tbaa !43
  %47 = getelementptr inbounds nuw i8, ptr %15, i64 24
  %48 = load ptr, ptr %47, align 8, !tbaa !44
  %49 = tail call ptr %46(ptr noundef %48, ptr noundef null, i64 noundef 0, i64 noundef %44) #35
  %50 = icmp eq ptr %49, null
  %51 = icmp ne i64 %44, 0
  %or.cond.i.i = and i1 %51, %50
  br i1 %or.cond.i.i, label %52, label %luaM_realloc_.exit.i

52:                                               ; preds = %43
  %53 = getelementptr inbounds nuw i8, ptr %0, i64 168
  %54 = load ptr, ptr %53, align 8, !tbaa !32
  %.not.i.i.i = icmp eq ptr %54, null
  br i1 %.not.i.i.i, label %58, label %55

55:                                               ; preds = %52
  %56 = getelementptr inbounds nuw i8, ptr %54, i64 208
  store volatile i32 4, ptr %56, align 8, !tbaa !112
  %57 = getelementptr inbounds nuw i8, ptr %54, i64 8
  tail call void @longjmp(ptr noundef nonnull %57, i32 noundef 1) #40
  unreachable

58:                                               ; preds = %52
  %59 = getelementptr inbounds nuw i8, ptr %0, i64 10
  store i8 4, ptr %59, align 2, !tbaa !39
  %60 = load ptr, ptr %14, align 8, !tbaa !29
  %61 = getelementptr inbounds nuw i8, ptr %60, i64 152
  %62 = load ptr, ptr %61, align 8, !tbaa !49
  %.not10.i.i.i = icmp eq ptr %62, null
  br i1 %.not10.i.i.i, label %68, label %63

63:                                               ; preds = %58
  tail call fastcc void @resetstack(ptr noundef nonnull %0, i32 noundef 4)
  %64 = load ptr, ptr %14, align 8, !tbaa !29
  %65 = getelementptr inbounds nuw i8, ptr %64, i64 152
  %66 = load ptr, ptr %65, align 8, !tbaa !49
  %67 = tail call i32 %66(ptr noundef nonnull %0) #35
  br label %68

68:                                               ; preds = %63, %58
  tail call void @exit(i32 noundef 1) #41
  unreachable

luaM_realloc_.exit.i:                             ; preds = %43
  %69 = getelementptr inbounds nuw i8, ptr %15, i64 120
  %70 = load i64, ptr %69, align 8, !tbaa !54
  %71 = add i64 %70, %44
  store i64 %71, ptr %69, align 8, !tbaa !54
  %72 = getelementptr inbounds nuw i8, ptr %49, i64 16
  store i64 %2, ptr %72, align 8, !tbaa !46
  %73 = getelementptr inbounds nuw i8, ptr %49, i64 12
  store i32 %.035.lcssa, ptr %73, align 4, !tbaa !46
  %74 = load ptr, ptr %14, align 8, !tbaa !29
  %75 = getelementptr inbounds nuw i8, ptr %74, i64 32
  %76 = load i8, ptr %75, align 8, !tbaa !20
  %77 = and i8 %76, 3
  %78 = getelementptr inbounds nuw i8, ptr %49, i64 9
  store i8 %77, ptr %78, align 1, !tbaa !46
  %79 = getelementptr inbounds nuw i8, ptr %49, i64 8
  store i8 4, ptr %79, align 8, !tbaa !46
  %80 = getelementptr inbounds nuw i8, ptr %49, i64 10
  store i8 0, ptr %80, align 2, !tbaa !46
  %81 = getelementptr inbounds nuw i8, ptr %49, i64 24
  tail call void @llvm.memcpy.p0.p0.i64(ptr nonnull align 8 %81, ptr align 1 %1, i64 %2, i1 false)
  %82 = getelementptr inbounds nuw i8, ptr %81, i64 %2
  store i8 0, ptr %82, align 1, !tbaa !46
  %83 = load ptr, ptr %14, align 8, !tbaa !29
  %84 = getelementptr inbounds nuw i8, ptr %83, i64 12
  %85 = load i32, ptr %84, align 4, !tbaa !131
  %86 = add nsw i32 %85, -1
  %87 = and i32 %86, %.035.lcssa
  %88 = load ptr, ptr %83, align 8, !tbaa !132
  %89 = zext i32 %87 to i64
  %90 = getelementptr inbounds nuw ptr, ptr %88, i64 %89
  %91 = load ptr, ptr %90, align 8, !tbaa !130
  store ptr %91, ptr %49, align 8, !tbaa !46
  %92 = load ptr, ptr %83, align 8, !tbaa !132
  %93 = getelementptr inbounds nuw ptr, ptr %92, i64 %89
  store ptr %49, ptr %93, align 8, !tbaa !130
  %94 = getelementptr inbounds nuw i8, ptr %83, i64 8
  %95 = load i32, ptr %94, align 8, !tbaa !137
  %96 = add i32 %95, 1
  store i32 %96, ptr %94, align 8, !tbaa !137
  %97 = load i32, ptr %84, align 4, !tbaa !131
  %98 = icmp ugt i32 %96, %97
  %99 = icmp slt i32 %97, 1073741823
  %or.cond.i = and i1 %98, %99
  br i1 %or.cond.i, label %100, label %newlstr.exit

100:                                              ; preds = %luaM_realloc_.exit.i
  %101 = shl nsw i32 %97, 1
  tail call fastcc void @luaS_resize(ptr noundef nonnull %0, i32 noundef %101)
  br label %newlstr.exit

newlstr.exit:                                     ; preds = %29, %37, %100, %luaM_realloc_.exit.i
  %.2 = phi ptr [ %49, %luaM_realloc_.exit.i ], [ %49, %100 ], [ %.03447, %37 ], [ %.03447, %29 ]
  ret ptr %.2
}